; Function Attrs: nounwind uwtable
define ptr @l_Lean_Environment_AddConstAsyncResult_commitConst___lambda__2(ptr noundef %0, ptr noundef %1, ptr noundef %2, ptr noundef %3, ptr noundef %4, ptr readnone captures(none) %5, ptr noundef %6) local_unnamed_addr #1 {
  %8 = ptrtoint ptr %2 to i64
  %9 = and i64 %8, 1
  %.not.i38 = icmp eq i64 %9, 0
  br i1 %.not.i38, label %13, label %10

10:                                               ; preds = %7
  %11 = lshr i64 %8, 1
  %12 = trunc i64 %11 to i32
  br label %lean_obj_tag.exit

13:                                               ; preds = %7
  %14 = getelementptr i8, ptr %2, i64 4
  %.val.i = load i32, ptr %14, align 4
  %15 = lshr i32 %.val.i, 24
  br label %lean_obj_tag.exit

lean_obj_tag.exit:                                ; preds = %10, %13
  %.0.i = phi i32 [ %12, %10 ], [ %15, %13 ]
  %16 = icmp eq i32 %.0.i, 0
  br i1 %16, label %17, label %19

17:                                               ; preds = %lean_obj_tag.exit
  %18 = tail call ptr @l_Lean_Environment_AddConstAsyncResult_commitConst___lambda__1(ptr noundef %0, ptr noundef %1, ptr noundef %2, ptr noundef %3, ptr nonnull poison, ptr noundef %6)
  br label %71

19:                                               ; preds = %lean_obj_tag.exit
  %20 = getelementptr inbounds nuw i8, ptr %2, i64 8
  %21 = load ptr, ptr %20, align 8, !tbaa !9
  %22 = tail call ptr @l_Lean_ConstantInfo_toConstantVal(ptr noundef %21) #10
  %23 = tail call zeroext i8 @l_Lean_beqConstantVal____x40_Lean_Declaration___hyg_431_(ptr noundef %22, ptr noundef %4) #10
  %24 = ptrtoint ptr %22 to i64
  %25 = and i64 %24, 1
  %.not = icmp eq i64 %25, 0
  br i1 %.not, label %26, label %lean_dec.exit31

26:                                               ; preds = %19
  %27 = load i32, ptr %22, align 4, !tbaa !4
  %28 = icmp sgt i32 %27, 1
  br i1 %28, label %29, label %31, !prof !11

29:                                               ; preds = %26
  %30 = add nsw i32 %27, -1
  store i32 %30, ptr %22, align 4, !tbaa !4
  br label %lean_dec.exit31

31:                                               ; preds = %26
  %.not.i = icmp eq i32 %27, 0
  br i1 %.not.i, label %lean_dec.exit31, label %32

32:                                               ; preds = %31
  tail call void @lean_dec_ref_cold(ptr noundef nonnull %22) #10
  br label %lean_dec.exit31

lean_dec.exit31:                                  ; preds = %32, %31, %29, %19
  %33 = icmp eq i8 %23, 0
  br i1 %33, label %34, label %69

34:                                               ; preds = %lean_dec.exit31
  %35 = ptrtoint ptr %3 to i64
  %36 = and i64 %35, 1
  %.not39 = icmp eq i64 %36, 0
  br i1 %.not39, label %37, label %lean_dec.exit30

37:                                               ; preds = %34
  %38 = load i32, ptr %3, align 4, !tbaa !4
  %39 = icmp sgt i32 %38, 1
  br i1 %39, label %40, label %42, !prof !11

40:                                               ; preds = %37
  %41 = add nsw i32 %38, -1
  store i32 %41, ptr %3, align 4, !tbaa !4
  br label %lean_dec.exit30

42:                                               ; preds = %37
  %.not.i32 = icmp eq i32 %38, 0
  br i1 %.not.i32, label %lean_dec.exit30, label %43

43:                                               ; preds = %42
  tail call void @lean_dec_ref_cold(ptr noundef nonnull %3) #10
  br label %lean_dec.exit30

lean_dec.exit30:                                  ; preds = %43, %42, %40, %34
  %44 = ptrtoint ptr %1 to i64
  %45 = and i64 %44, 1
  %.not40 = icmp eq i64 %45, 0
  br i1 %.not40, label %46, label %lean_dec.exit29

46:                                               ; preds = %lean_dec.exit30
  %47 = load i32, ptr %1, align 4, !tbaa !4
  %48 = icmp sgt i32 %47, 1
  br i1 %48, label %49, label %51, !prof !11

49:                                               ; preds = %46
  %50 = add nsw i32 %47, -1
  store i32 %50, ptr %1, align 4, !tbaa !4
  br label %lean_dec.exit29

51:                                               ; preds = %46
  %.not.i34 = icmp eq i32 %47, 0
  br i1 %.not.i34, label %lean_dec.exit29, label %52

52:                                               ; preds = %51
  tail call void @lean_dec_ref_cold(ptr noundef nonnull %1) #10
  br label %lean_dec.exit29

lean_dec.exit29:                                  ; preds = %52, %51, %49, %lean_dec.exit30
  %53 = ptrtoint ptr %0 to i64
  %54 = and i64 %53, 1
  %.not41 = icmp eq i64 %54, 0
  br i1 %.not41, label %55, label %lean_dec.exit

55:                                               ; preds = %lean_dec.exit29
  %56 = load i32, ptr %0, align 4, !tbaa !4
  %57 = icmp sgt i32 %56, 1
  br i1 %57, label %58, label %60, !prof !11

58:                                               ; preds = %55
  %59 = add nsw i32 %56, -1
  store i32 %59, ptr %0, align 4, !tbaa !4
  br label %lean_dec.exit

60:                                               ; preds = %55
  %.not.i36 = icmp eq i32 %56, 0
  br i1 %.not.i36, label %lean_dec.exit, label %61

61:                                               ; preds = %60
  tail call void @lean_dec_ref_cold(ptr noundef nonnull %0) #10
  br label %lean_dec.exit

lean_dec.exit:                                    ; preds = %61, %60, %58, %lean_dec.exit29
  %62 = load ptr, ptr @l_Lean_Environment_AddConstAsyncResult_commitConst___lambda__2___closed__2, align 8, !tbaa !9
  tail call void @lean_inc_heartbeat() #10
  %63 = tail call noalias ptr @mi_malloc_small(i64 noundef 24) #10
  %64 = icmp eq ptr %63, null
  br i1 %64, label %65, label %lean_alloc_ctor.exit

65:                                               ; preds = %lean_dec.exit
  tail call void @lean_internal_panic_out_of_memory() #11
  unreachable

lean_alloc_ctor.exit:                             ; preds = %lean_dec.exit
  %66 = getelementptr inbounds nuw i8, ptr %63, i64 4
  store i32 1, ptr %63, align 4, !tbaa !4
  store i32 16908312, ptr %66, align 4
  %67 = getelementptr inbounds nuw i8, ptr %63, i64 8
  store ptr %62, ptr %67, align 8, !tbaa !9
  %68 = getelementptr inbounds nuw i8, ptr %63, i64 16
  store ptr %6, ptr %68, align 8, !tbaa !9
  br label %71

69:                                               ; preds = %lean_dec.exit31
  %70 = tail call ptr @l_Lean_Environment_AddConstAsyncResult_commitConst___lambda__1(ptr noundef %0, ptr noundef %1, ptr noundef nonnull %2, ptr noundef %3, ptr nonnull poison, ptr noundef %6)
  br label %71

71:                                               ; preds = %lean_alloc_ctor.exit, %69, %17
  %.0 = phi ptr [ %18, %17 ], [ %63, %lean_alloc_ctor.exit ], [ %70, %69 ]
  ret ptr %.0
}